; Function Attrs: mustprogress uwtable
define internal fastcc void @_ZN12_GLOBAL__N_111getFilenameB5cxx11ERK13SourceCodePos(ptr dead_on_unwind noalias writable align 8 %0, ptr %.0.val) unnamed_addr #3 personality ptr @__gxx_personality_v0 {
  %2 = alloca %"class.std::__cxx11::basic_string", align 8
  %3 = alloca %"class.std::allocator", align 1
  %4 = alloca %"class.std::__cxx11::basic_string", align 8
  call void @_ZNSaIcEC1Ev(ptr noundef nonnull align 1 dereferenceable(1) %3) #7
  invoke void @_ZNSt7__cxx1112basic_stringIcSt11char_traitsIcESaIcEEC1EPKcRKS3_(ptr noundef nonnull align 8 dereferenceable(32) %2, ptr noundef %.0.val, ptr noundef nonnull align 1 dereferenceable(1) %3)
          to label %5 unwind label %9

5:                                                ; preds = %1
  call void @_ZNSaIcED1Ev(ptr noundef nonnull align 1 dereferenceable(1) %3) #7
  %6 = call noundef i64 @_ZNKSt7__cxx1112basic_stringIcSt11char_traitsIcESaIcEE12find_last_ofEPKcm(ptr noundef nonnull align 8 dereferenceable(32) %2, ptr noundef nonnull @.str.9, i64 noundef -1) #7
  %7 = icmp eq i64 %6, -1
  br i1 %7, label %8, label %13

8:                                                ; preds = %5
  invoke void @_ZNSt7__cxx1112basic_stringIcSt11char_traitsIcESaIcEEC1ERKS4_(ptr noundef nonnull align 8 dereferenceable(32) %0, ptr noundef nonnull align 8 dereferenceable(32) %2)
          to label %_ZN8tstrings8fromUtf8ERKNSt7__cxx1112basic_stringIcSt11char_traitsIcESaIcEEE.exit unwind label %11

9:                                                ; preds = %1
  %10 = landingpad { ptr, i32 }
          cleanup
  call void @_ZNSaIcED1Ev(ptr noundef nonnull align 1 dereferenceable(1) %3) #7
  br label %19

11:                                               ; preds = %8, %13
  %12 = landingpad { ptr, i32 }
          cleanup
  br label %18

13:                                               ; preds = %5
  %14 = add nuw i64 %6, 1
  invoke void @_ZNKSt7__cxx1112basic_stringIcSt11char_traitsIcESaIcEE6substrEmm(ptr dead_on_unwind nonnull writable sret(%"class.std::__cxx11::basic_string") align 8 %4, ptr noundef nonnull align 8 dereferenceable(32) %2, i64 noundef %14, i64 noundef -1)
          to label %15 unwind label %11

15:                                               ; preds = %13
  invoke void @_ZNSt7__cxx1112basic_stringIcSt11char_traitsIcESaIcEEC1ERKS4_(ptr noundef nonnull align 8 dereferenceable(32) %0, ptr noundef nonnull align 8 dereferenceable(32) %4)
          to label %_ZN8tstrings8fromUtf8ERKNSt7__cxx1112basic_stringIcSt11char_traitsIcESaIcEEE.exit9 unwind label %16

_ZN8tstrings8fromUtf8ERKNSt7__cxx1112basic_stringIcSt11char_traitsIcESaIcEEE.exit9: ; preds = %15
  call void @_ZNSt7__cxx1112basic_stringIcSt11char_traitsIcESaIcEED1Ev(ptr noundef nonnull align 8 dereferenceable(32) %4) #7
  br label %_ZN8tstrings8fromUtf8ERKNSt7__cxx1112basic_stringIcSt11char_traitsIcESaIcEEE.exit

16:                                               ; preds = %15
  %17 = landingpad { ptr, i32 }
          cleanup
  call void @_ZNSt7__cxx1112basic_stringIcSt11char_traitsIcESaIcEED1Ev(ptr noundef nonnull align 8 dereferenceable(32) %4) #7
  br label %18

_ZN8tstrings8fromUtf8ERKNSt7__cxx1112basic_stringIcSt11char_traitsIcESaIcEEE.exit: ; preds = %8, %_ZN8tstrings8fromUtf8ERKNSt7__cxx1112basic_stringIcSt11char_traitsIcESaIcEEE.exit9
  call void @_ZNSt7__cxx1112basic_stringIcSt11char_traitsIcESaIcEED1Ev(ptr noundef nonnull align 8 dereferenceable(32) %2) #7
  ret void

18:                                               ; preds = %16, %11
  %.pn = phi { ptr, i32 } [ %12, %11 ], [ %17, %16 ]
  call void @_ZNSt7__cxx1112basic_stringIcSt11char_traitsIcESaIcEED1Ev(ptr noundef nonnull align 8 dereferenceable(32) %2) #7
  br label %19

19:                                               ; preds = %18, %9
  %.pn.pn = phi { ptr, i32 } [ %.pn, %18 ], [ %10, %9 ]
  resume { ptr, i32 } %.pn.pn
}